(dp0
Vtime_used
p1
I123
sVimage_id
p2
VWpInWoZ2/0ue5/MJHZ7fLQ==
p3
sVfaces
p4
(lp5
(dp6
Vlandmark
p7
(dp8
Vmouth_upper_lip_left_contour2
p9
(dp10
Vy
p11
I158
sVx
p12
I115
ssVmouth_upper_lip_top
p13
(dp14
g11
I158
sg12
I129
ssVmouth_upper_lip_left_contour1
p15
(dp16
g11
I157
sg12
I124
ssVright_eyebrow_lower_middle
p17
(dp18
g11
I114
sg12
I157
ssVleft_eyebrow_lower_middle
p19
(dp20
g11
I111
sg12
I108
ssVmouth_upper_lip_left_contour3
p21
(dp22
g11
I160
sg12
I118
ssVright_eye_top
p23
(dp24
g11
I119
sg12
I153
ssVmouth_upper_lip_right_contour3
p25
(dp26
g11
I162
sg12
I140
ssVnose_contour_left1
p27
(dp28
g11
I122
sg12
I126
ssVmouth_lower_lip_right_contour1
p29
(dp30
g11
I167
sg12
I140
ssVmouth_lower_lip_left_contour2
p31
(dp32
g11
I167
sg12
I111
ssVmouth_lower_lip_right_contour3
p33
(dp34
g11
I173
sg12
I137
ssVmouth_lower_lip_right_contour2
p35
(dp36
g11
I170
sg12
I144
ssVcontour_chin
p37
(dp38
g11
I198
sg12
I127
ssVcontour_right7
p39
(dp40
g11
I185
sg12
I159
ssVright_eyebrow_left_corner
p41
(dp42
g11
I115
sg12
I142
ssVright_eye_bottom
p43
(dp44
g11
I126
sg12
I153
ssVcontour_left7
p45
(dp46
g11
I180
sg12
I96
ssVcontour_left6
p47
(dp48
g11
I172
sg12
I90
ssVcontour_left5
p49
(dp50
g11
I162
sg12
I85
ssVcontour_left4
p51
(dp52
g11
I151
sg12
I83
ssVcontour_left3
p53
(dp54
g11
I140
sg12
I83
ssVcontour_left2
p55
(dp56
g11
I129
sg12
I82
ssVcontour_left1
p57
(dp58
g11
I118
sg12
I83
ssVleft_eye_lower_left_quarter
p59
(dp60
g11
I121
sg12
I106
ssVcontour_right1
p61
(dp62
g11
I126
sg12
I182
ssVright_eye_pupil
p63
(dp64
g11
I122
sg12
I154
ssVcontour_right2
p65
(dp66
g11
I137
sg12
I180
ssVmouth_left_corner
p67
(dp68
g11
I160
sg12
I107
ssVcontour_right4
p69
(dp70
g11
I158
sg12
I176
ssVcontour_left9
p71
(dp72
g11
I194
sg12
I114
ssVleft_eyebrow_left_corner
p73
(dp74
g11
I111
sg12
I94
ssVnose_right
p75
(dp76
g11
I146
sg12
I144
ssVright_eye_left_corner
p77
(dp78
g11
I123
sg12
I144
ssVnose_tip
p79
(dp80
g11
I145
sg12
I131
ssVcontour_right5
p81
(dp82
g11
I169
sg12
I172
ssVnose_contour_lower_middle
p83
(dp84
g11
I151
sg12
I130
ssVleft_eyebrow_lower_left_quarter
p85
(dp86
g11
I110
sg12
I100
ssVmouth_lower_lip_left_contour3
p87
(dp88
g11
I171
sg12
I118
ssVright_eye_right_corner
p89
(dp90
g11
I124
sg12
I162
ssVright_eye_lower_right_quarter
p91
(dp92
g11
I125
sg12
I158
ssVmouth_upper_lip_right_contour2
p93
(dp94
g11
I160
sg12
I143
ssVright_eyebrow_upper_middle
p95
(dp96
g11
I109
sg12
I157
ssVleft_eyebrow_upper_left_quarter
p97
(dp98
g11
I105
sg12
I100
ssVleft_eye_left_corner
p99
(dp100
g11
I120
sg12
I102
ssVmouth_right_corner
p101
(dp102
g11
I164
sg12
I151
ssVright_eye_lower_left_quarter
p103
(dp104
g11
I125
sg12
I148
ssVleft_eyebrow_right_corner
p105
(dp106
g11
I113
sg12
I123
ssVnose_contour_right3
p107
(dp108
g11
I149
sg12
I138
ssVright_eye_center
p109
(dp110
g11
I123
sg12
I153
ssVnose_left
p111
(dp112
g11
I144
sg12
I117
ssVcontour_left8
p113
(dp114
g11
I188
sg12
I105
ssVleft_eye_upper_right_quarter
p115
(dp116
g11
I118
sg12
I116
ssVleft_eye_upper_left_quarter
p117
(dp118
g11
I117
sg12
I106
ssVleft_eye_center
p119
(dp120
g11
I120
sg12
I111
ssVleft_eye_lower_right_quarter
p121
(dp122
g11
I122
sg12
I116
ssVright_eye_upper_right_quarter
p123
(dp124
g11
I121
sg12
I158
ssVcontour_right9
p125
(dp126
g11
I196
sg12
I139
ssVmouth_lower_lip_top
p127
(dp128
g11
I168
sg12
I128
ssVnose_contour_left3
p129
(dp130
g11
I148
sg12
I123
ssVright_eyebrow_lower_left_quarter
p131
(dp132
g11
I115
sg12
I150
ssVleft_eye_pupil
p133
(dp134
g11
I119
sg12
I111
ssVleft_eye_right_corner
p135
(dp136
g11
I122
sg12
I121
ssVright_eyebrow_upper_left_quarter
p137
(dp138
g11
I110
sg12
I149
ssVcontour_right8
p139
(dp140
g11
I191
sg12
I149
ssVright_eyebrow_right_corner
p141
(dp142
g11
I117
sg12
I172
ssVright_eye_upper_left_quarter
p143
(dp144
g11
I120
sg12
I148
ssVleft_eyebrow_upper_middle
p145
(dp146
g11
I104
sg12
I108
ssVright_eyebrow_upper_right_quarter
p147
(dp148
g11
I111
sg12
I166
ssVleft_eye_bottom
p149
(dp150
g11
I122
sg12
I110
ssVnose_contour_left2
p151
(dp152
g11
I137
sg12
I121
ssVmouth_upper_lip_right_contour1
p153
(dp154
g11
I158
sg12
I133
ssVnose_contour_right1
p155
(dp156
g11
I123
sg12
I139
ssVnose_contour_right2
p157
(dp158
g11
I139
sg12
I141
ssVmouth_lower_lip_bottom
p159
(dp160
g11
I174
sg12
I127
ssVmouth_upper_lip_bottom
p161
(dp162
g11
I161
sg12
I128
ssVcontour_right6
p163
(dp164
g11
I178
sg12
I166
ssVleft_eyebrow_lower_right_quarter
p165
(dp166
g11
I112
sg12
I115
ssVleft_eye_top
p167
(dp168
g11
I116
sg12
I111
ssVright_eyebrow_lower_right_quarter
p169
(dp170
g11
I115
sg12
I165
ssVleft_eyebrow_upper_right_quarter
p171
(dp172
g11
I107
sg12
I116
ssVcontour_right3
p173
(dp174
g11
I148
sg12
I178
ssVmouth_lower_lip_left_contour1
p175
(dp176
g11
I165
sg12
I116
sssVface_token
p177
Vf4117862f0699d1ed885afd44c1bae8e
p178
sVface_rectangle
p179
(dp180
Vwidth
p181
I99
sVtop
p182
I102
sVheight
p183
I99
sVleft
p184
I80
ssasVrequest_id
p185
V1543269491,81418528-2069-4c71-9e2d-2f592e714d23
p186
s.